target datalayout = "e-m:e-p270:32:32-p271:32:32-p272:64:64-i64:64-i128:128-f80:128-n8:16:32:64-S128"
target triple = "x86_64-pc-linux-gnu"

@.str = private unnamed_addr constant [32 x i8] c"../openssl/crypto/asn1/d2i_pr.c\00", align 1
@__func__.d2i_AutoPrivateKey_legacy = private unnamed_addr constant [26 x i8] c"d2i_AutoPrivateKey_legacy\00", align 1

; Function Attrs: inlinehint nounwind uwtable
define internal ptr @ossl_check_ASN1_TYPE_freefunc_type(ptr noundef %0) #3 {
  %2 = alloca ptr, align 8
  store ptr %0, ptr %2, align 8, !tbaa !48
  %3 = load ptr, ptr %2, align 8, !tbaa !48
  ret ptr %3
}

; Function Attrs: inlinehint nounwind uwtable
define internal ptr @ossl_check_ASN1_TYPE_sk_type(ptr noundef %0) #3 {
  %2 = alloca ptr, align 8
  store ptr %0, ptr %2, align 8, !tbaa !46
  %3 = load ptr, ptr %2, align 8, !tbaa !46
  ret ptr %3
}

; Function Attrs: inlinehint nounwind uwtable
define internal ptr @ossl_check_const_ASN1_TYPE_sk_type(ptr noundef %0) #3 {
  %2 = alloca ptr, align 8
  store ptr %0, ptr %2, align 8, !tbaa !46
  %3 = load ptr, ptr %2, align 8, !tbaa !46
  ret ptr %3
}

; Function Attrs: nounwind uwtable
define internal ptr @d2i_AutoPrivateKey_legacy(ptr noundef %0, ptr noundef %1, i64 noundef %2, ptr noundef %3, ptr noundef %4) #0 {
  %6 = alloca ptr, align 8
  %7 = alloca ptr, align 8
  %8 = alloca ptr, align 8
  %9 = alloca i64, align 8
  %10 = alloca ptr, align 8
  %11 = alloca ptr, align 8
  %12 = alloca ptr, align 8
  %13 = alloca ptr, align 8
  %14 = alloca i32, align 4
  %15 = alloca ptr, align 8
  %16 = alloca ptr, align 8
  %17 = alloca i32, align 4
  store ptr %0, ptr %7, align 8, !tbaa !7
  store ptr %1, ptr %8, align 8, !tbaa !10
  store i64 %2, ptr %9, align 8, !tbaa !12
  store ptr %3, ptr %10, align 8, !tbaa !14
  store ptr %4, ptr %11, align 8, !tbaa !16
  call void @llvm.lifetime.start.p0(i64 8, ptr %12) #4
  call void @llvm.lifetime.start.p0(i64 8, ptr %13) #4
  call void @llvm.lifetime.start.p0(i64 4, ptr %14) #4
  %18 = load ptr, ptr %8, align 8, !tbaa !10
  %19 = load ptr, ptr %18, align 8, !tbaa !16
  store ptr %19, ptr %13, align 8, !tbaa !16
  %20 = load i64, ptr %9, align 8, !tbaa !12
  %21 = call ptr @d2i_ASN1_SEQUENCE_ANY(ptr noundef null, ptr noundef %13, i64 noundef %20)
  store ptr %21, ptr %12, align 8, !tbaa !46
  %22 = load ptr, ptr %8, align 8, !tbaa !10
  %23 = load ptr, ptr %22, align 8, !tbaa !16
  store ptr %23, ptr %13, align 8, !tbaa !16
  %24 = load ptr, ptr %12, align 8, !tbaa !46
  %25 = call ptr @ossl_check_const_ASN1_TYPE_sk_type(ptr noundef %24)
  %26 = call i32 @OPENSSL_sk_num(ptr noundef %25)
  %27 = icmp eq i32 %26, 6
  br i1 %27, label %28, label %29

28:                                               ; preds = %5
  store i32 116, ptr %14, align 4, !tbaa !3
  br label %72

29:                                               ; preds = %5
  %30 = load ptr, ptr %12, align 8, !tbaa !46
  %31 = call ptr @ossl_check_const_ASN1_TYPE_sk_type(ptr noundef %30)
  %32 = call i32 @OPENSSL_sk_num(ptr noundef %31)
  %33 = icmp eq i32 %32, 4
  br i1 %33, label %34, label %35

34:                                               ; preds = %29
  store i32 408, ptr %14, align 4, !tbaa !3
  br label %71

35:                                               ; preds = %29
  %36 = load ptr, ptr %12, align 8, !tbaa !46
  %37 = call ptr @ossl_check_const_ASN1_TYPE_sk_type(ptr noundef %36)
  %38 = call i32 @OPENSSL_sk_num(ptr noundef %37)
  %39 = icmp eq i32 %38, 3
  br i1 %39, label %40, label %69

40:                                               ; preds = %35
  call void @llvm.lifetime.start.p0(i64 8, ptr %15) #4
  %41 = load i64, ptr %9, align 8, !tbaa !12
  %42 = call ptr @d2i_PKCS8_PRIV_KEY_INFO(ptr noundef null, ptr noundef %13, i64 noundef %41)
  store ptr %42, ptr %15, align 8, !tbaa !36
  call void @llvm.lifetime.start.p0(i64 8, ptr %16) #4
  %43 = load ptr, ptr %12, align 8, !tbaa !46
  %44 = call ptr @ossl_check_ASN1_TYPE_sk_type(ptr noundef %43)
  %45 = call ptr @ossl_check_ASN1_TYPE_freefunc_type(ptr noundef @ASN1_TYPE_free)
  call void @OPENSSL_sk_pop_free(ptr noundef %44, ptr noundef %45)
  %46 = load ptr, ptr %15, align 8, !tbaa !36
  %47 = icmp eq ptr %46, null
  br i1 %47, label %48, label %49

48:                                               ; preds = %40
  call void @ERR_new()
  call void @ERR_set_debug(ptr noundef @.str, i32 noundef 219, ptr noundef @__func__.d2i_AutoPrivateKey_legacy)
  call void (i32, i32, ptr, ...) @ERR_set_error(i32 noundef 13, i32 noundef 167, ptr noundef null)
  store ptr null, ptr %6, align 8
  store i32 1, ptr %17, align 4
  br label %68

49:                                               ; preds = %40
  %50 = load ptr, ptr %15, align 8, !tbaa !36
  %51 = load ptr, ptr %10, align 8, !tbaa !14
  %52 = load ptr, ptr %11, align 8, !tbaa !16
  %53 = call ptr @evp_pkcs82pkey_legacy(ptr noundef %50, ptr noundef %51, ptr noundef %52)
  store ptr %53, ptr %16, align 8, !tbaa !18
  %54 = load ptr, ptr %15, align 8, !tbaa !36
  call void @PKCS8_PRIV_KEY_INFO_free(ptr noundef %54)
  %55 = load ptr, ptr %16, align 8, !tbaa !18
  %56 = icmp eq ptr %55, null
  br i1 %56, label %57, label %58

57:                                               ; preds = %49
  store ptr null, ptr %6, align 8
  store i32 1, ptr %17, align 4
  br label %68

58:                                               ; preds = %49
  %59 = load ptr, ptr %13, align 8, !tbaa !16
  %60 = load ptr, ptr %8, align 8, !tbaa !10
  store ptr %59, ptr %60, align 8, !tbaa !16
  %61 = load ptr, ptr %7, align 8, !tbaa !7
  %62 = icmp ne ptr %61, null
  br i1 %62, label %63, label %66

63:                                               ; preds = %58
  %64 = load ptr, ptr %16, align 8, !tbaa !18
  %65 = load ptr, ptr %7, align 8, !tbaa !7
  store ptr %64, ptr %65, align 8, !tbaa !18
  br label %66

66:                                               ; preds = %63, %58
  %67 = load ptr, ptr %16, align 8, !tbaa !18
  store ptr %67, ptr %6, align 8
  store i32 1, ptr %17, align 4
  br label %68

68:                                               ; preds = %66, %57, %48
  call void @llvm.lifetime.end.p0(i64 8, ptr %16) #4
  call void @llvm.lifetime.end.p0(i64 8, ptr %15) #4
  br label %83

69:                                               ; preds = %35
  store i32 6, ptr %14, align 4, !tbaa !3
  br label %70

70:                                               ; preds = %69
  br label %71

71:                                               ; preds = %70, %34
  br label %72

72:                                               ; preds = %71, %28
  %73 = load ptr, ptr %12, align 8, !tbaa !46
  %74 = call ptr @ossl_check_ASN1_TYPE_sk_type(ptr noundef %73)
  %75 = call ptr @ossl_check_ASN1_TYPE_freefunc_type(ptr noundef @ASN1_TYPE_free)
  call void @OPENSSL_sk_pop_free(ptr noundef %74, ptr noundef %75)
  %76 = load i32, ptr %14, align 4, !tbaa !3
  %77 = load ptr, ptr %7, align 8, !tbaa !7
  %78 = load ptr, ptr %8, align 8, !tbaa !10
  %79 = load i64, ptr %9, align 8, !tbaa !12
  %80 = load ptr, ptr %10, align 8, !tbaa !14
  %81 = load ptr, ptr %11, align 8, !tbaa !16
  %82 = call ptr @ossl_d2i_PrivateKey_legacy(i32 noundef %76, ptr noundef %77, ptr noundef %78, i64 noundef %79, ptr noundef %80, ptr noundef %81)
  store ptr %82, ptr %6, align 8
  store i32 1, ptr %17, align 4
  br label %83

83:                                               ; preds = %72, %68
  call void @llvm.lifetime.end.p0(i64 4, ptr %14) #4
  call void @llvm.lifetime.end.p0(i64 8, ptr %13) #4
  call void @llvm.lifetime.end.p0(i64 8, ptr %12) #4
  %84 = load ptr, ptr %6, align 8
  ret ptr %84
}

; Function Attrs: nounwind uwtable
define ptr @d2i_AutoPrivateKey_ex(ptr noundef %0, ptr noundef %1, i64 noundef %2, ptr noundef %3, ptr noundef %4) #0 {
  %6 = alloca ptr, align 8
  %7 = alloca ptr, align 8
  %8 = alloca i64, align 8
  %9 = alloca ptr, align 8
  %10 = alloca ptr, align 8
  %11 = alloca ptr, align 8
  store ptr %0, ptr %6, align 8, !tbaa !7
  store ptr %1, ptr %7, align 8, !tbaa !10
  store i64 %2, ptr %8, align 8, !tbaa !12
  store ptr %3, ptr %9, align 8, !tbaa !14
  store ptr %4, ptr %10, align 8, !tbaa !16
  call void @llvm.lifetime.start.p0(i64 8, ptr %11) #4
  %12 = load ptr, ptr %6, align 8, !tbaa !7
  %13 = load ptr, ptr %7, align 8, !tbaa !10
  %14 = load i64, ptr %8, align 8, !tbaa !12
  %15 = load ptr, ptr %9, align 8, !tbaa !14
  %16 = load ptr, ptr %10, align 8, !tbaa !16
  %17 = call ptr @d2i_PrivateKey_decoder(i32 noundef 0, ptr noundef %12, ptr noundef %13, i64 noundef %14, ptr noundef %15, ptr noundef %16)
  store ptr %17, ptr %11, align 8, !tbaa !18
  %18 = load ptr, ptr %11, align 8, !tbaa !18
  %19 = icmp eq ptr %18, null
  br i1 %19, label %20, label %27

20:                                               ; preds = %5
  %21 = load ptr, ptr %6, align 8, !tbaa !7
  %22 = load ptr, ptr %7, align 8, !tbaa !10
  %23 = load i64, ptr %8, align 8, !tbaa !12
  %24 = load ptr, ptr %9, align 8, !tbaa !14
  %25 = load ptr, ptr %10, align 8, !tbaa !16
  %26 = call ptr @d2i_AutoPrivateKey_legacy(ptr noundef %21, ptr noundef %22, i64 noundef %23, ptr noundef %24, ptr noundef %25)
  store ptr %26, ptr %11, align 8, !tbaa !18
  br label %27

27:                                               ; preds = %20, %5
  %28 = load ptr, ptr %11, align 8, !tbaa !18
  call void @llvm.lifetime.end.p0(i64 8, ptr %11) #4
  ret ptr %28
}