; Function Attrs: nounwind uwtable
define ptr @d2i_AutoPrivateKey_ex(ptr noundef %0, ptr noundef %1, i64 noundef %2, ptr noundef %3, ptr noundef %4) local_unnamed_addr #0 {
  %6 = alloca ptr, align 8
  %7 = tail call fastcc ptr @d2i_PrivateKey_decoder(i32 noundef 0, ptr noundef %0, ptr noundef %1, i64 noundef %2, ptr noundef %3, ptr noundef %4)
  %8 = icmp eq ptr %7, null
  br i1 %8, label %9, label %33

9:                                                ; preds = %5
  call void @llvm.lifetime.start.p0(i64 8, ptr nonnull %6) #3
  %10 = load ptr, ptr %1, align 8, !tbaa !3
  store ptr %10, ptr %6, align 8, !tbaa !3
  %11 = call ptr @d2i_ASN1_SEQUENCE_ANY(ptr noundef null, ptr noundef nonnull %6, i64 noundef %2) #3
  %12 = load ptr, ptr %1, align 8, !tbaa !3
  store ptr %12, ptr %6, align 8, !tbaa !3
  %13 = call i32 @OPENSSL_sk_num(ptr noundef %11) #3
  %14 = icmp eq i32 %13, 6
  br i1 %14, label %31, label %15

15:                                               ; preds = %9
  %16 = call i32 @OPENSSL_sk_num(ptr noundef %11) #3
  %17 = icmp eq i32 %16, 4
  br i1 %17, label %31, label %18

18:                                               ; preds = %15
  %19 = call i32 @OPENSSL_sk_num(ptr noundef %11) #3
  %20 = icmp eq i32 %19, 3
  br i1 %20, label %21, label %31

21:                                               ; preds = %18
  %22 = call ptr @d2i_PKCS8_PRIV_KEY_INFO(ptr noundef null, ptr noundef nonnull %6, i64 noundef %2) #3
  call void @OPENSSL_sk_pop_free(ptr noundef %11, ptr noundef nonnull @ASN1_TYPE_free) #3
  %23 = icmp eq ptr %22, null
  br i1 %23, label %24, label %25

24:                                               ; preds = %21
  call void @ERR_new() #3
  call void @ERR_set_debug(ptr noundef nonnull @.str, i32 noundef 219, ptr noundef nonnull @__func__.d2i_AutoPrivateKey_legacy) #3
  call void (i32, i32, ptr, ...) @ERR_set_error(i32 noundef 13, i32 noundef 167, ptr noundef null) #3
  br label %d2i_AutoPrivateKey_legacy.exit

25:                                               ; preds = %21
  %26 = call ptr @evp_pkcs82pkey_legacy(ptr noundef nonnull %22, ptr noundef %3, ptr noundef %4) #3
  call void @PKCS8_PRIV_KEY_INFO_free(ptr noundef nonnull %22) #3
  %27 = icmp eq ptr %26, null
  br i1 %27, label %d2i_AutoPrivateKey_legacy.exit, label %28

28:                                               ; preds = %25
  %29 = load ptr, ptr %6, align 8, !tbaa !3
  store ptr %29, ptr %1, align 8, !tbaa !3
  %.not.i = icmp eq ptr %0, null
  br i1 %.not.i, label %d2i_AutoPrivateKey_legacy.exit, label %30

30:                                               ; preds = %28
  store ptr %26, ptr %0, align 8, !tbaa !8
  br label %d2i_AutoPrivateKey_legacy.exit

31:                                               ; preds = %18, %15, %9
  %.026.i = phi i32 [ 116, %9 ], [ 408, %15 ], [ 6, %18 ]
  call void @OPENSSL_sk_pop_free(ptr noundef %11, ptr noundef nonnull @ASN1_TYPE_free) #3
  %32 = call ptr @ossl_d2i_PrivateKey_legacy(i32 noundef %.026.i, ptr noundef %0, ptr noundef nonnull %1, i64 noundef %2, ptr noundef %3, ptr noundef %4)
  br label %d2i_AutoPrivateKey_legacy.exit

d2i_AutoPrivateKey_legacy.exit:                   ; preds = %24, %25, %28, %30, %31
  %.1.i = phi ptr [ %32, %31 ], [ null, %24 ], [ null, %25 ], [ %26, %30 ], [ %26, %28 ]
  call void @llvm.lifetime.end.p0(i64 8, ptr nonnull %6) #3
  br label %33

33:                                               ; preds = %d2i_AutoPrivateKey_legacy.exit, %5
  %.0 = phi ptr [ %.1.i, %d2i_AutoPrivateKey_legacy.exit ], [ %7, %5 ]
  ret ptr %.0
}